; Function Attrs: mustprogress uwtable
define hidden noundef zeroext i1 @_ZN4cvc58internal6theory4sets17TheorySetsPrivate10isEntailedENS0_12NodeTemplateILb1EEEb(ptr noundef nonnull readonly align 8 captures(none) dereferenceable(744) %0, ptr noundef readonly captures(none) %1, i1 noundef zeroext %2) local_unnamed_addr #3 align 2 personality ptr @__gxx_personality_v0 {
  %4 = alloca %"class.cvc5::internal::NodeTemplate", align 8
  %5 = getelementptr inbounds nuw i8, ptr %0, i64 272
  %6 = load ptr, ptr %5, align 8, !tbaa !141
  %7 = load ptr, ptr %1, align 8, !tbaa !11
  store ptr %7, ptr %4, align 8, !tbaa !11
  %8 = load i64, ptr %7, align 8
  %9 = lshr i64 %8, 40
  %10 = trunc nuw nsw i64 %9 to i32
  %11 = and i32 %10, 1048575
  %12 = icmp samesign ult i32 %11, 1048574
  br i1 %12, label %13, label %18, !prof !111

13:                                               ; preds = %3
  %14 = add i64 %8, 1099511627776
  %15 = and i64 %14, 1152920405095219200
  %16 = and i64 %8, -1152920405095219201
  %17 = or disjoint i64 %15, %16
  store i64 %17, ptr %7, align 8
  br label %_ZN4cvc58internal12NodeTemplateILb1EEC2ERKS2_.exit

18:                                               ; preds = %3
  %19 = icmp eq i32 %11, 1048574
  br i1 %19, label %20, label %_ZN4cvc58internal12NodeTemplateILb1EEC2ERKS2_.exit, !prof !110

20:                                               ; preds = %18
  %21 = or i64 %8, 1152920405095219200
  store i64 %21, ptr %7, align 8
  tail call void @_ZN4cvc58internal4expr9NodeValue20markRefCountMaxedOutEv(ptr noundef nonnull align 8 dereferenceable(24) %7)
  br label %_ZN4cvc58internal12NodeTemplateILb1EEC2ERKS2_.exit

_ZN4cvc58internal12NodeTemplateILb1EEC2ERKS2_.exit: ; preds = %13, %18, %20
  %22 = invoke noundef zeroext i1 @_ZNK4cvc58internal6theory4sets11SolverState10isEntailedENS0_12NodeTemplateILb1EEEb(ptr noundef nonnull align 8 dereferenceable(1448) %6, ptr noundef nonnull %4, i1 noundef zeroext %2)
          to label %23 unwind label %37

23:                                               ; preds = %_ZN4cvc58internal12NodeTemplateILb1EEC2ERKS2_.exit
  %24 = load ptr, ptr %4, align 8, !tbaa !11
  %25 = load i64, ptr %24, align 8
  %26 = and i64 %25, 1152920405095219200
  %.not.i.i = icmp eq i64 %26, 1152920405095219200
  br i1 %.not.i.i, label %_ZN4cvc58internal12NodeTemplateILb1EED2Ev.exit, label %27, !prof !110

27:                                               ; preds = %23
  %28 = add i64 %25, 1152920405095219200
  %29 = and i64 %28, 1152920405095219200
  %30 = and i64 %25, -1152920405095219201
  %31 = or disjoint i64 %29, %30
  store i64 %31, ptr %24, align 8
  %32 = icmp eq i64 %29, 0
  br i1 %32, label %33, label %_ZN4cvc58internal12NodeTemplateILb1EED2Ev.exit, !prof !110

33:                                               ; preds = %27
  invoke void @_ZN4cvc58internal4expr9NodeValue15markForDeletionEv(ptr noundef nonnull align 8 dereferenceable(24) %24)
          to label %_ZN4cvc58internal12NodeTemplateILb1EED2Ev.exit unwind label %34

34:                                               ; preds = %33
  %35 = landingpad { ptr, i32 }
          catch ptr null
  %36 = extractvalue { ptr, i32 } %35, 0
  call void @__clang_call_terminate(ptr %36) #30
  unreachable

_ZN4cvc58internal12NodeTemplateILb1EED2Ev.exit:   ; preds = %23, %27, %33
  ret i1 %22

37:                                               ; preds = %_ZN4cvc58internal12NodeTemplateILb1EEC2ERKS2_.exit
  %38 = landingpad { ptr, i32 }
          cleanup
  call void @_ZN4cvc58internal12NodeTemplateILb1EED2Ev(ptr noundef nonnull align 8 dereferenceable(8) %4) #27
  resume { ptr, i32 } %38
}